; Function Attrs: nounwind uwtable
define hidden noundef ptr @EC_GROUP_new_curve_GFp(ptr noundef %0, ptr noundef %1, ptr noundef %2, ptr noundef %3) local_unnamed_addr #1 {
  %5 = tail call ptr @EC_GFp_mont_method() #11
  %6 = tail call ptr @ec_group_new(ptr noundef %5)
  %7 = icmp eq ptr %6, null
  br i1 %7, label %27, label %8

8:                                                ; preds = %4
  %9 = load ptr, ptr %6, align 8, !tbaa !11
  %10 = getelementptr inbounds nuw i8, ptr %9, i64 24
  %11 = load ptr, ptr %10, align 8, !tbaa !19
  %12 = icmp eq ptr %11, null
  br i1 %12, label %13, label %14

13:                                               ; preds = %8
  tail call void @ERR_put_error(i32 noundef 15, i32 noundef 0, i32 noundef 66, ptr noundef nonnull @.str, i32 noundef 382) #11
  br label %27

14:                                               ; preds = %8
  %15 = tail call i32 %11(ptr noundef nonnull %6, ptr noundef %0, ptr noundef %1, ptr noundef %2, ptr noundef %3) #11
  %.not = icmp eq i32 %15, 0
  br i1 %.not, label %16, label %27

16:                                               ; preds = %14
  %17 = load ptr, ptr %6, align 8, !tbaa !11
  %18 = getelementptr inbounds nuw i8, ptr %17, i64 8
  %19 = load ptr, ptr %18, align 8, !tbaa !20
  %.not9.i = icmp eq ptr %19, null
  br i1 %.not9.i, label %21, label %20

20:                                               ; preds = %16
  tail call void %19(ptr noundef nonnull %6) #11
  br label %21

21:                                               ; preds = %20, %16
  %22 = getelementptr inbounds nuw i8, ptr %6, i64 8
  %23 = load ptr, ptr %22, align 8, !tbaa !21
  %.not.i.i = icmp eq ptr %23, null
  br i1 %.not.i.i, label %EC_GROUP_free.exit, label %24

24:                                               ; preds = %21
  tail call void @ec_GFp_simple_point_finish(ptr noundef nonnull %23) #11
  tail call void @free(ptr noundef nonnull %23) #11
  br label %EC_GROUP_free.exit

EC_GROUP_free.exit:                               ; preds = %21, %24
  %25 = getelementptr inbounds nuw i8, ptr %6, i64 16
  tail call void @BN_free(ptr noundef nonnull %25) #11
  %26 = getelementptr inbounds nuw i8, ptr %6, i64 40
  tail call void @BN_free(ptr noundef nonnull %26) #11
  tail call void @free(ptr noundef nonnull %6) #11
  br label %27

27:                                               ; preds = %14, %4, %EC_GROUP_free.exit, %13
  %.0 = phi ptr [ null, %13 ], [ null, %EC_GROUP_free.exit ], [ null, %4 ], [ %6, %14 ]
  ret ptr %.0
}